target datalayout = "e-m:e-p270:32:32-p271:32:32-p272:64:64-i64:64-i128:128-f80:128-n8:16:32:64-S128"
target triple = "x86_64-pc-linux-gnu"

%struct.mbedtls_ssl_context = type { ptr, i32, i32, i32, i32, i32, ptr, ptr, ptr, ptr, ptr, ptr, ptr, ptr, ptr, ptr, ptr, ptr, ptr, ptr, ptr, ptr, ptr, ptr, ptr, ptr, ptr, ptr, ptr, ptr, ptr, ptr, ptr, i32, i64, i64, i16, i64, i64, i64, i64, i32, i32, i8, i8, i32, i8, ptr, ptr, ptr, ptr, ptr, ptr, ptr, i32, i64, i64, [8 x i8], i16, ptr, ptr, ptr, i64, i32, i64, [12 x i8], [12 x i8], [32 x i8], i8, i8, ptr, ptr, %union.mbedtls_ssl_user_data_t }
%union.mbedtls_ssl_user_data_t = type { i64 }
%struct.mbedtls_ssl_config = type { i32, i32, i8, i8, i8, i8, i8, i8, i8, i8, i8, i8, i16, i8, i8, i8, ptr, i32, ptr, ptr, ptr, ptr, ptr, ptr, ptr, ptr, ptr, ptr, ptr, ptr, ptr, ptr, ptr, ptr, ptr, ptr, ptr, i64, ptr, ptr, ptr, ptr, ptr, ptr, ptr, ptr, %struct.mbedtls_mpi, %struct.mbedtls_mpi, ptr, i64, ptr, i64, ptr, i32, i32, i32, i32, [8 x i8], i32, i32, %union.mbedtls_ssl_user_data_t, ptr, ptr }
%struct.mbedtls_mpi = type { ptr, i16, i16 }

@.str = private unnamed_addr constant [121 x i8] c"generated/home/dtcxzyw/WorkSpace/Projects/compilers/llvm-opt-benchmark/bench/lief/bench_build/mbed_src/library/ssl_msg.c\00", align 1
@.str.72 = private unnamed_addr constant [25 x i8] c"mbedtls_ssl_write_record\00", align 1
@.str.88 = private unnamed_addr constant [25 x i8] c"mbedtls_ssl_flush_output\00", align 1
@.str.133 = private unnamed_addr constant [26 x i8] c"ssl_check_ctr_renegotiate\00", align 1
@.str.134 = private unnamed_addr constant [22 x i8] c"mbedtls_ssl_handshake\00", align 1
@.str.140 = private unnamed_addr constant [9 x i8] c"=> write\00", align 1
@.str.141 = private unnamed_addr constant [9 x i8] c"<= write\00", align 1
@.str.233 = private unnamed_addr constant [42 x i8] c"record counter limit reached: renegotiate\00", align 1
@.str.241 = private unnamed_addr constant [39 x i8] c"mbedtls_ssl_get_max_out_record_payload\00", align 1
@.str.242 = private unnamed_addr constant [73 x i8] c"fragment larger than the (negotiated) maximum fragment length: %zu > %zu\00", align 1

; Function Attrs: inlinehint nounwind uwtable
define internal i32 @mbedtls_ssl_is_handshake_over(ptr noundef %0) #4 {
  %2 = alloca ptr, align 8
  store ptr %0, ptr %2, align 8, !tbaa !3
  %3 = load ptr, ptr %2, align 8, !tbaa !3
  %4 = getelementptr inbounds nuw %struct.mbedtls_ssl_context, ptr %3, i32 0, i32 1
  %5 = load i32, ptr %4, align 8, !tbaa !93
  %6 = icmp sge i32 %5, 27
  %7 = zext i1 %6 to i32
  ret i32 %7
}

; Function Attrs: inlinehint nounwind uwtable
define internal i64 @mbedtls_ssl_ep_len(ptr noundef %0) #4 {
  %2 = alloca i64, align 8
  %3 = alloca ptr, align 8
  store ptr %0, ptr %3, align 8, !tbaa !3
  %4 = load ptr, ptr %3, align 8, !tbaa !3
  %5 = getelementptr inbounds nuw %struct.mbedtls_ssl_context, ptr %4, i32 0, i32 0
  %6 = load ptr, ptr %5, align 8, !tbaa !23
  %7 = getelementptr inbounds nuw %struct.mbedtls_ssl_config, ptr %6, i32 0, i32 3
  %8 = load i8, ptr %7, align 1, !tbaa !24
  %9 = zext i8 %8 to i32
  %10 = icmp eq i32 %9, 1
  br i1 %10, label %11, label %12

11:                                               ; preds = %1
  store i64 2, ptr %2, align 8
  br label %13

12:                                               ; preds = %1
  store i64 0, ptr %2, align 8
  br label %13

13:                                               ; preds = %12, %11
  %14 = load i64, ptr %2, align 8
  ret i64 %14
}

; Function Attrs: nounwind uwtable
define internal i32 @ssl_write_real(ptr noundef %0, ptr noundef %1, i64 noundef %2) #0 {
  %4 = alloca i32, align 4
  %5 = alloca ptr, align 8
  %6 = alloca ptr, align 8
  %7 = alloca i64, align 8
  %8 = alloca i32, align 4
  %9 = alloca i64, align 8
  %10 = alloca i32, align 4
  store ptr %0, ptr %5, align 8, !tbaa !3
  store ptr %1, ptr %6, align 8, !tbaa !21
  store i64 %2, ptr %7, align 8, !tbaa !22
  call void @llvm.lifetime.start.p0(i64 4, ptr %8) #11
  %11 = load ptr, ptr %5, align 8, !tbaa !3
  %12 = call i32 @mbedtls_ssl_get_max_out_record_payload(ptr noundef %11)
  store i32 %12, ptr %8, align 4, !tbaa !8
  call void @llvm.lifetime.start.p0(i64 8, ptr %9) #11
  %13 = load i32, ptr %8, align 4, !tbaa !8
  %14 = sext i32 %13 to i64
  store i64 %14, ptr %9, align 8, !tbaa !22
  %15 = load i32, ptr %8, align 4, !tbaa !8
  %16 = icmp slt i32 %15, 0
  br i1 %16, label %17, label %21

17:                                               ; preds = %3
  %18 = load ptr, ptr %5, align 8, !tbaa !3
  %19 = load i32, ptr %8, align 4, !tbaa !8
  call void @mbedtls_debug_print_ret(ptr noundef %18, i32 noundef 1, ptr noundef @.str, i32 noundef 5997, ptr noundef @.str.241, i32 noundef %19)
  %20 = load i32, ptr %8, align 4, !tbaa !8
  store i32 %20, ptr %4, align 4
  store i32 1, ptr %10, align 4
  br label %80

21:                                               ; preds = %3
  %22 = load i64, ptr %7, align 8, !tbaa !22
  %23 = load i64, ptr %9, align 8, !tbaa !22
  %24 = icmp ugt i64 %22, %23
  br i1 %24, label %25, label %40

25:                                               ; preds = %21
  %26 = load ptr, ptr %5, align 8, !tbaa !3
  %27 = getelementptr inbounds nuw %struct.mbedtls_ssl_context, ptr %26, i32 0, i32 0
  %28 = load ptr, ptr %27, align 8, !tbaa !23
  %29 = getelementptr inbounds nuw %struct.mbedtls_ssl_config, ptr %28, i32 0, i32 3
  %30 = load i8, ptr %29, align 1, !tbaa !24
  %31 = zext i8 %30 to i32
  %32 = icmp eq i32 %31, 1
  br i1 %32, label %33, label %37

33:                                               ; preds = %25
  %34 = load ptr, ptr %5, align 8, !tbaa !3
  %35 = load i64, ptr %7, align 8, !tbaa !22
  %36 = load i64, ptr %9, align 8, !tbaa !22
  call void (ptr, i32, ptr, i32, ptr, ...) @mbedtls_debug_print_msg(ptr noundef %34, i32 noundef 1, ptr noundef @.str, i32 noundef 6007, ptr noundef @.str.242, i64 noundef %35, i64 noundef %36)
  store i32 -28928, ptr %4, align 4
  store i32 1, ptr %10, align 4
  br label %80

37:                                               ; preds = %25
  %38 = load i64, ptr %9, align 8, !tbaa !22
  store i64 %38, ptr %7, align 8, !tbaa !22
  br label %39

39:                                               ; preds = %37
  br label %40

40:                                               ; preds = %39, %21
  %41 = load ptr, ptr %5, align 8, !tbaa !3
  %42 = getelementptr inbounds nuw %struct.mbedtls_ssl_context, ptr %41, i32 0, i32 56
  %43 = load i64, ptr %42, align 8, !tbaa !101
  %44 = icmp ne i64 %43, 0
  br i1 %44, label %45, label %54

45:                                               ; preds = %40
  %46 = load ptr, ptr %5, align 8, !tbaa !3
  %47 = call i32 @mbedtls_ssl_flush_output(ptr noundef %46)
  store i32 %47, ptr %8, align 4, !tbaa !8
  %48 = icmp ne i32 %47, 0
  br i1 %48, label %49, label %53

49:                                               ; preds = %45
  %50 = load ptr, ptr %5, align 8, !tbaa !3
  %51 = load i32, ptr %8, align 4, !tbaa !8
  call void @mbedtls_debug_print_ret(ptr noundef %50, i32 noundef 1, ptr noundef @.str, i32 noundef 6022, ptr noundef @.str.88, i32 noundef %51)
  %52 = load i32, ptr %8, align 4, !tbaa !8
  store i32 %52, ptr %4, align 4
  store i32 1, ptr %10, align 4
  br label %80

53:                                               ; preds = %45
  br label %77

54:                                               ; preds = %40
  %55 = load i64, ptr %7, align 8, !tbaa !22
  %56 = load ptr, ptr %5, align 8, !tbaa !3
  %57 = getelementptr inbounds nuw %struct.mbedtls_ssl_context, ptr %56, i32 0, i32 55
  store i64 %55, ptr %57, align 8, !tbaa !102
  %58 = load ptr, ptr %5, align 8, !tbaa !3
  %59 = getelementptr inbounds nuw %struct.mbedtls_ssl_context, ptr %58, i32 0, i32 54
  store i32 23, ptr %59, align 8, !tbaa !125
  %60 = load i64, ptr %7, align 8, !tbaa !22
  %61 = icmp ugt i64 %60, 0
  br i1 %61, label %62, label %68

62:                                               ; preds = %54
  %63 = load ptr, ptr %5, align 8, !tbaa !3
  %64 = getelementptr inbounds nuw %struct.mbedtls_ssl_context, ptr %63, i32 0, i32 53
  %65 = load ptr, ptr %64, align 8, !tbaa !111
  %66 = load ptr, ptr %6, align 8, !tbaa !21
  %67 = load i64, ptr %7, align 8, !tbaa !22
  call void @llvm.memcpy.p0.p0.i64(ptr align 1 %65, ptr align 1 %66, i64 %67, i1 false)
  br label %68

68:                                               ; preds = %62, %54
  %69 = load ptr, ptr %5, align 8, !tbaa !3
  %70 = call i32 @mbedtls_ssl_write_record(ptr noundef %69, i32 noundef 1)
  store i32 %70, ptr %8, align 4, !tbaa !8
  %71 = icmp ne i32 %70, 0
  br i1 %71, label %72, label %76

72:                                               ; preds = %68
  %73 = load ptr, ptr %5, align 8, !tbaa !3
  %74 = load i32, ptr %8, align 4, !tbaa !8
  call void @mbedtls_debug_print_ret(ptr noundef %73, i32 noundef 1, ptr noundef @.str, i32 noundef 6038, ptr noundef @.str.72, i32 noundef %74)
  %75 = load i32, ptr %8, align 4, !tbaa !8
  store i32 %75, ptr %4, align 4
  store i32 1, ptr %10, align 4
  br label %80

76:                                               ; preds = %68
  br label %77

77:                                               ; preds = %76, %53
  %78 = load i64, ptr %7, align 8, !tbaa !22
  %79 = trunc i64 %78 to i32
  store i32 %79, ptr %4, align 4
  store i32 1, ptr %10, align 4
  br label %80

80:                                               ; preds = %77, %72, %49, %33, %17
  call void @llvm.lifetime.end.p0(i64 8, ptr %9) #11
  call void @llvm.lifetime.end.p0(i64 4, ptr %8) #11
  %81 = load i32, ptr %4, align 4
  ret i32 %81
}

; Function Attrs: nounwind uwtable
define internal i32 @ssl_check_ctr_renegotiate(ptr noundef %0) #0 {
  %2 = alloca i32, align 4
  %3 = alloca ptr, align 8
  %4 = alloca i64, align 8
  %5 = alloca i32, align 4
  %6 = alloca i32, align 4
  %7 = alloca i32, align 4
  store ptr %0, ptr %3, align 8, !tbaa !3
  call void @llvm.lifetime.start.p0(i64 8, ptr %4) #11
  %8 = load ptr, ptr %3, align 8, !tbaa !3
  %9 = call i64 @mbedtls_ssl_ep_len(ptr noundef %8)
  store i64 %9, ptr %4, align 8, !tbaa !22
  call void @llvm.lifetime.start.p0(i64 4, ptr %5) #11
  call void @llvm.lifetime.start.p0(i64 4, ptr %6) #11
  %10 = load ptr, ptr %3, align 8, !tbaa !3
  %11 = call i32 @mbedtls_ssl_is_handshake_over(ptr noundef %10)
  %12 = icmp eq i32 %11, 0
  br i1 %12, label %26, label %13

13:                                               ; preds = %1
  %14 = load ptr, ptr %3, align 8, !tbaa !3
  %15 = getelementptr inbounds nuw %struct.mbedtls_ssl_context, ptr %14, i32 0, i32 2
  %16 = load i32, ptr %15, align 4, !tbaa !95
  %17 = icmp eq i32 %16, 3
  br i1 %17, label %26, label %18

18:                                               ; preds = %13
  %19 = load ptr, ptr %3, align 8, !tbaa !3
  %20 = getelementptr inbounds nuw %struct.mbedtls_ssl_context, ptr %19, i32 0, i32 0
  %21 = load ptr, ptr %20, align 8, !tbaa !23
  %22 = getelementptr inbounds nuw %struct.mbedtls_ssl_config, ptr %21, i32 0, i32 10
  %23 = load i8, ptr %22, align 8, !tbaa !175
  %24 = zext i8 %23 to i32
  %25 = icmp eq i32 %24, 0
  br i1 %25, label %26, label %27

26:                                               ; preds = %18, %13, %1
  store i32 0, ptr %2, align 4
  store i32 1, ptr %7, align 4
  br label %65

27:                                               ; preds = %18
  %28 = load ptr, ptr %3, align 8, !tbaa !3
  %29 = getelementptr inbounds nuw %struct.mbedtls_ssl_context, ptr %28, i32 0, i32 26
  %30 = load ptr, ptr %29, align 8, !tbaa !44
  %31 = load i64, ptr %4, align 8, !tbaa !22
  %32 = getelementptr inbounds nuw i8, ptr %30, i64 %31
  %33 = load ptr, ptr %3, align 8, !tbaa !3
  %34 = getelementptr inbounds nuw %struct.mbedtls_ssl_context, ptr %33, i32 0, i32 0
  %35 = load ptr, ptr %34, align 8, !tbaa !23
  %36 = getelementptr inbounds nuw %struct.mbedtls_ssl_config, ptr %35, i32 0, i32 57
  %37 = load i64, ptr %4, align 8, !tbaa !22
  %38 = getelementptr inbounds nuw [8 x i8], ptr %36, i64 0, i64 %37
  %39 = load i64, ptr %4, align 8, !tbaa !22
  %40 = sub i64 8, %39
  %41 = call i32 @memcmp(ptr noundef %32, ptr noundef %38, i64 noundef %40) #12
  store i32 %41, ptr %5, align 4, !tbaa !8
  %42 = load ptr, ptr %3, align 8, !tbaa !3
  %43 = getelementptr inbounds nuw %struct.mbedtls_ssl_context, ptr %42, i32 0, i32 57
  %44 = load i64, ptr %4, align 8, !tbaa !22
  %45 = getelementptr inbounds nuw [8 x i8], ptr %43, i64 0, i64 %44
  %46 = load ptr, ptr %3, align 8, !tbaa !3
  %47 = getelementptr inbounds nuw %struct.mbedtls_ssl_context, ptr %46, i32 0, i32 0
  %48 = load ptr, ptr %47, align 8, !tbaa !23
  %49 = getelementptr inbounds nuw %struct.mbedtls_ssl_config, ptr %48, i32 0, i32 57
  %50 = load i64, ptr %4, align 8, !tbaa !22
  %51 = getelementptr inbounds nuw [8 x i8], ptr %49, i64 0, i64 %50
  %52 = load i64, ptr %4, align 8, !tbaa !22
  %53 = sub i64 8, %52
  %54 = call i32 @memcmp(ptr noundef %45, ptr noundef %51, i64 noundef %53) #12
  store i32 %54, ptr %6, align 4, !tbaa !8
  %55 = load i32, ptr %5, align 4, !tbaa !8
  %56 = icmp sle i32 %55, 0
  br i1 %56, label %57, label %61

57:                                               ; preds = %27
  %58 = load i32, ptr %6, align 4, !tbaa !8
  %59 = icmp sle i32 %58, 0
  br i1 %59, label %60, label %61

60:                                               ; preds = %57
  store i32 0, ptr %2, align 4
  store i32 1, ptr %7, align 4
  br label %65

61:                                               ; preds = %57, %27
  %62 = load ptr, ptr %3, align 8, !tbaa !3
  call void (ptr, i32, ptr, i32, ptr, ...) @mbedtls_debug_print_msg(ptr noundef %62, i32 noundef 1, ptr noundef @.str, i32 noundef 5566, ptr noundef @.str.233)
  %63 = load ptr, ptr %3, align 8, !tbaa !3
  %64 = call i32 @mbedtls_ssl_renegotiate(ptr noundef %63)
  store i32 %64, ptr %2, align 4
  store i32 1, ptr %7, align 4
  br label %65

65:                                               ; preds = %61, %60, %26
  call void @llvm.lifetime.end.p0(i64 4, ptr %6) #11
  call void @llvm.lifetime.end.p0(i64 4, ptr %5) #11
  call void @llvm.lifetime.end.p0(i64 8, ptr %4) #11
  %66 = load i32, ptr %2, align 4
  ret i32 %66
}

; Function Attrs: nounwind uwtable
define hidden i32 @mbedtls_ssl_write(ptr noundef %0, ptr noundef %1, i64 noundef %2) #0 {
  %4 = alloca i32, align 4
  %5 = alloca ptr, align 8
  %6 = alloca ptr, align 8
  %7 = alloca i64, align 8
  %8 = alloca i32, align 4
  %9 = alloca i32, align 4
  store ptr %0, ptr %5, align 8, !tbaa !3
  store ptr %1, ptr %6, align 8, !tbaa !21
  store i64 %2, ptr %7, align 8, !tbaa !22
  call void @llvm.lifetime.start.p0(i64 4, ptr %8) #11
  store i32 -110, ptr %8, align 4, !tbaa !8
  %10 = load ptr, ptr %5, align 8, !tbaa !3
  call void (ptr, i32, ptr, i32, ptr, ...) @mbedtls_debug_print_msg(ptr noundef %10, i32 noundef 2, ptr noundef @.str, i32 noundef 6053, ptr noundef @.str.140)
  %11 = load ptr, ptr %5, align 8, !tbaa !3
  %12 = icmp eq ptr %11, null
  br i1 %12, label %18, label %13

13:                                               ; preds = %3
  %14 = load ptr, ptr %5, align 8, !tbaa !3
  %15 = getelementptr inbounds nuw %struct.mbedtls_ssl_context, ptr %14, i32 0, i32 0
  %16 = load ptr, ptr %15, align 8, !tbaa !23
  %17 = icmp eq ptr %16, null
  br i1 %17, label %18, label %19

18:                                               ; preds = %13, %3
  store i32 -28928, ptr %4, align 4
  store i32 1, ptr %9, align 4
  br label %48

19:                                               ; preds = %13
  %20 = load ptr, ptr %5, align 8, !tbaa !3
  %21 = call i32 @ssl_check_ctr_renegotiate(ptr noundef %20)
  store i32 %21, ptr %8, align 4, !tbaa !8
  %22 = icmp ne i32 %21, 0
  br i1 %22, label %23, label %27

23:                                               ; preds = %19
  %24 = load ptr, ptr %5, align 8, !tbaa !3
  %25 = load i32, ptr %8, align 4, !tbaa !8
  call void @mbedtls_debug_print_ret(ptr noundef %24, i32 noundef 1, ptr noundef @.str, i32 noundef 6061, ptr noundef @.str.133, i32 noundef %25)
  %26 = load i32, ptr %8, align 4, !tbaa !8
  store i32 %26, ptr %4, align 4
  store i32 1, ptr %9, align 4
  br label %48

27:                                               ; preds = %19
  %28 = load ptr, ptr %5, align 8, !tbaa !3
  %29 = getelementptr inbounds nuw %struct.mbedtls_ssl_context, ptr %28, i32 0, i32 1
  %30 = load i32, ptr %29, align 8, !tbaa !93
  %31 = icmp ne i32 %30, 27
  br i1 %31, label %32, label %41

32:                                               ; preds = %27
  %33 = load ptr, ptr %5, align 8, !tbaa !3
  %34 = call i32 @mbedtls_ssl_handshake(ptr noundef %33)
  store i32 %34, ptr %8, align 4, !tbaa !8
  %35 = icmp ne i32 %34, 0
  br i1 %35, label %36, label %40

36:                                               ; preds = %32
  %37 = load ptr, ptr %5, align 8, !tbaa !3
  %38 = load i32, ptr %8, align 4, !tbaa !8
  call void @mbedtls_debug_print_ret(ptr noundef %37, i32 noundef 1, ptr noundef @.str, i32 noundef 6068, ptr noundef @.str.134, i32 noundef %38)
  %39 = load i32, ptr %8, align 4, !tbaa !8
  store i32 %39, ptr %4, align 4
  store i32 1, ptr %9, align 4
  br label %48

40:                                               ; preds = %32
  br label %41

41:                                               ; preds = %40, %27
  %42 = load ptr, ptr %5, align 8, !tbaa !3
  %43 = load ptr, ptr %6, align 8, !tbaa !21
  %44 = load i64, ptr %7, align 8, !tbaa !22
  %45 = call i32 @ssl_write_real(ptr noundef %42, ptr noundef %43, i64 noundef %44)
  store i32 %45, ptr %8, align 4, !tbaa !8
  %46 = load ptr, ptr %5, align 8, !tbaa !3
  call void (ptr, i32, ptr, i32, ptr, ...) @mbedtls_debug_print_msg(ptr noundef %46, i32 noundef 2, ptr noundef @.str, i32 noundef 6075, ptr noundef @.str.141)
  %47 = load i32, ptr %8, align 4, !tbaa !8
  store i32 %47, ptr %4, align 4
  store i32 1, ptr %9, align 4
  br label %48

48:                                               ; preds = %41, %36, %23, %18
  call void @llvm.lifetime.end.p0(i64 4, ptr %8) #11
  %49 = load i32, ptr %4, align 4
  ret i32 %49
}