; Function Attrs: nounwind uwtable
define hidden i32 @mbedtls_ssl_write(ptr noundef %0, ptr noundef readonly captures(none) %1, i64 noundef %2) local_unnamed_addr #0 {
  tail call void (ptr, i32, ptr, i32, ptr, ...) @mbedtls_debug_print_msg(ptr noundef %0, i32 noundef 2, ptr noundef nonnull @.str, i32 noundef 6053, ptr noundef nonnull @.str.140) #19
  %4 = icmp eq ptr %0, null
  br i1 %4, label %68, label %5

5:                                                ; preds = %3
  %6 = load ptr, ptr %0, align 8, !tbaa !18
  %7 = icmp eq ptr %6, null
  br i1 %7, label %68, label %8

8:                                                ; preds = %5
  %9 = getelementptr i8, ptr %6, i64 9
  %.val19.val.i = load i8, ptr %9, align 1, !tbaa !19
  %10 = icmp eq i8 %.val19.val.i, 1
  %..i.i = select i1 %10, i64 2, i64 0
  %11 = getelementptr i8, ptr %0, i64 8
  %.val.i = load i32, ptr %11, align 8, !tbaa !74
  %12 = icmp slt i32 %.val.i, 27
  br i1 %12, label %ssl_check_ctr_renegotiate.exit.thread.thread, label %13

13:                                               ; preds = %8
  %14 = getelementptr inbounds nuw i8, ptr %0, i64 12
  %15 = load i32, ptr %14, align 4, !tbaa !79
  %16 = icmp eq i32 %15, 3
  br i1 %16, label %ssl_check_ctr_renegotiate.exit.thread, label %17

17:                                               ; preds = %13
  %18 = getelementptr inbounds nuw i8, ptr %6, i64 16
  %19 = load i8, ptr %18, align 8, !tbaa !162
  %20 = icmp eq i8 %19, 0
  br i1 %20, label %ssl_check_ctr_renegotiate.exit.thread, label %21

21:                                               ; preds = %17
  %22 = getelementptr inbounds nuw i8, ptr %0, i64 192
  %23 = load ptr, ptr %22, align 8, !tbaa !38
  %24 = getelementptr inbounds nuw i8, ptr %23, i64 %..i.i
  %25 = getelementptr inbounds nuw i8, ptr %6, i64 352
  %26 = getelementptr inbounds nuw [8 x i8], ptr %25, i64 0, i64 %..i.i
  %27 = sub nuw nsw i64 8, %..i.i
  %28 = tail call i32 @memcmp(ptr noundef nonnull dereferenceable(1) %24, ptr noundef nonnull dereferenceable(1) %26, i64 noundef %27) #21
  %29 = getelementptr inbounds nuw i8, ptr %0, i64 416
  %30 = getelementptr inbounds nuw [8 x i8], ptr %29, i64 0, i64 %..i.i
  %31 = tail call i32 @memcmp(ptr noundef nonnull dereferenceable(1) %30, ptr noundef nonnull dereferenceable(1) %26, i64 noundef %27) #21
  %32 = icmp slt i32 %28, 1
  %33 = icmp slt i32 %31, 1
  %or.cond.i = select i1 %32, i1 %33, i1 false
  br i1 %or.cond.i, label %ssl_check_ctr_renegotiate.exit.thread, label %ssl_check_ctr_renegotiate.exit

ssl_check_ctr_renegotiate.exit:                   ; preds = %21
  tail call void (ptr, i32, ptr, i32, ptr, ...) @mbedtls_debug_print_msg(ptr noundef nonnull %0, i32 noundef 1, ptr noundef nonnull @.str, i32 noundef 5566, ptr noundef nonnull @.str.233) #19
  %34 = tail call i32 @mbedtls_ssl_renegotiate(ptr noundef nonnull %0) #19
  %.not = icmp eq i32 %34, 0
  br i1 %.not, label %ssl_check_ctr_renegotiate.exit.ssl_check_ctr_renegotiate.exit.thread_crit_edge, label %35

ssl_check_ctr_renegotiate.exit.ssl_check_ctr_renegotiate.exit.thread_crit_edge: ; preds = %ssl_check_ctr_renegotiate.exit
  %.pr.pre = load i32, ptr %11, align 8, !tbaa !74
  br label %ssl_check_ctr_renegotiate.exit.thread

35:                                               ; preds = %ssl_check_ctr_renegotiate.exit
  tail call void @mbedtls_debug_print_ret(ptr noundef nonnull %0, i32 noundef 1, ptr noundef nonnull @.str, i32 noundef 6061, ptr noundef nonnull @.str.133, i32 noundef %34) #19
  br label %68

ssl_check_ctr_renegotiate.exit.thread:            ; preds = %ssl_check_ctr_renegotiate.exit.ssl_check_ctr_renegotiate.exit.thread_crit_edge, %21, %13, %17
  %.pr = phi i32 [ %.pr.pre, %ssl_check_ctr_renegotiate.exit.ssl_check_ctr_renegotiate.exit.thread_crit_edge ], [ %.val.i, %21 ], [ %.val.i, %13 ], [ %.val.i, %17 ]
  %.not20 = icmp eq i32 %.pr, 27
  br i1 %.not20, label %38, label %ssl_check_ctr_renegotiate.exit.thread.thread

ssl_check_ctr_renegotiate.exit.thread.thread:     ; preds = %8, %ssl_check_ctr_renegotiate.exit.thread
  %36 = tail call i32 @mbedtls_ssl_handshake(ptr noundef nonnull %0) #19
  %.not21 = icmp eq i32 %36, 0
  br i1 %.not21, label %38, label %37

37:                                               ; preds = %ssl_check_ctr_renegotiate.exit.thread.thread
  tail call void @mbedtls_debug_print_ret(ptr noundef nonnull %0, i32 noundef 1, ptr noundef nonnull @.str, i32 noundef 6068, ptr noundef nonnull @.str.134, i32 noundef %36) #19
  br label %68

38:                                               ; preds = %ssl_check_ctr_renegotiate.exit.thread.thread, %ssl_check_ctr_renegotiate.exit.thread
  %39 = tail call i32 @mbedtls_ssl_get_max_out_record_payload(ptr noundef nonnull %0) #19
  %40 = sext i32 %39 to i64
  %41 = icmp slt i32 %39, 0
  br i1 %41, label %42, label %43

42:                                               ; preds = %38
  tail call void @mbedtls_debug_print_ret(ptr noundef nonnull %0, i32 noundef 1, ptr noundef nonnull @.str, i32 noundef 5997, ptr noundef nonnull @.str.241, i32 noundef %39) #19
  br label %ssl_write_real.exit

43:                                               ; preds = %38
  %44 = icmp ugt i64 %2, %40
  br i1 %44, label %45, label %51

45:                                               ; preds = %43
  %46 = load ptr, ptr %0, align 8, !tbaa !18
  %47 = getelementptr inbounds nuw i8, ptr %46, i64 9
  %48 = load i8, ptr %47, align 1, !tbaa !19
  %49 = icmp eq i8 %48, 1
  br i1 %49, label %50, label %51

50:                                               ; preds = %45
  tail call void (ptr, i32, ptr, i32, ptr, ...) @mbedtls_debug_print_msg(ptr noundef nonnull %0, i32 noundef 1, ptr noundef nonnull @.str, i32 noundef 6007, ptr noundef nonnull @.str.242, i64 noundef %2, i64 noundef %40) #19
  br label %ssl_write_real.exit

51:                                               ; preds = %45, %43
  %.030.i = phi i64 [ %2, %43 ], [ %40, %45 ]
  %52 = getelementptr inbounds nuw i8, ptr %0, i64 408
  %53 = load i64, ptr %52, align 8, !tbaa !95
  %.not.i = icmp eq i64 %53, 0
  br i1 %.not.i, label %57, label %54

54:                                               ; preds = %51
  %55 = tail call i32 @mbedtls_ssl_flush_output(ptr noundef nonnull %0)
  %.not38.i = icmp eq i32 %55, 0
  br i1 %.not38.i, label %66, label %56

56:                                               ; preds = %54
  tail call void @mbedtls_debug_print_ret(ptr noundef nonnull %0, i32 noundef 1, ptr noundef nonnull @.str, i32 noundef 6022, ptr noundef nonnull @.str.88, i32 noundef %55) #19
  br label %ssl_write_real.exit

57:                                               ; preds = %51
  %58 = getelementptr inbounds nuw i8, ptr %0, i64 400
  store i64 %.030.i, ptr %58, align 8, !tbaa !98
  %59 = getelementptr inbounds nuw i8, ptr %0, i64 392
  store i32 23, ptr %59, align 8, !tbaa !118
  %.not36.i = icmp eq i64 %.030.i, 0
  br i1 %.not36.i, label %63, label %60

60:                                               ; preds = %57
  %61 = getelementptr inbounds nuw i8, ptr %0, i64 384
  %62 = load ptr, ptr %61, align 8, !tbaa !105
  tail call void @llvm.memcpy.p0.p0.i64(ptr align 1 %62, ptr readonly align 1 %1, i64 %.030.i, i1 false)
  br label %63

63:                                               ; preds = %60, %57
  %64 = tail call i32 @mbedtls_ssl_write_record(ptr noundef nonnull %0, i32 noundef 1)
  %.not37.i = icmp eq i32 %64, 0
  br i1 %.not37.i, label %66, label %65

65:                                               ; preds = %63
  tail call void @mbedtls_debug_print_ret(ptr noundef nonnull %0, i32 noundef 1, ptr noundef nonnull @.str, i32 noundef 6038, ptr noundef nonnull @.str.72, i32 noundef %64) #19
  br label %ssl_write_real.exit

66:                                               ; preds = %63, %54
  %67 = trunc i64 %.030.i to i32
  br label %ssl_write_real.exit

ssl_write_real.exit:                              ; preds = %42, %50, %56, %65, %66
  %.0.i22 = phi i32 [ %39, %42 ], [ -28928, %50 ], [ %55, %56 ], [ %67, %66 ], [ %64, %65 ]
  tail call void (ptr, i32, ptr, i32, ptr, ...) @mbedtls_debug_print_msg(ptr noundef nonnull %0, i32 noundef 2, ptr noundef nonnull @.str, i32 noundef 6075, ptr noundef nonnull @.str.141) #19
  br label %68

68:                                               ; preds = %3, %5, %ssl_write_real.exit, %37, %35
  %.0 = phi i32 [ %34, %35 ], [ %36, %37 ], [ %.0.i22, %ssl_write_real.exit ], [ -28928, %5 ], [ -28928, %3 ]
  ret i32 %.0
}